ccopy_reg
_reconstructor
p0
(csklearn.preprocessing.label
LabelBinarizer
p1
c__builtin__
object
p2
Ntp3
Rp4
(dp5
S'neg_label'
p6
I0
sS'sparse_input_'
p7
I00
sS'sparse_output'
p8
I00
sS'classes_'
p9
cnumpy.core.multiarray
_reconstruct
p10
(cnumpy
ndarray
p11
(I0
tp12
S'b'
p13
tp14
Rp15
(I1
(I52
tp16
cnumpy
dtype
p17
(S'S4'
p18
I0
I1
tp19
Rp20
(I3
S'|'
p21
NNNI4
I1
I0
tp22
bI00
S'[C0][C2][C3][C4][C5][C6][C7][C8][C9][CA][CJ][CK][CQ][D0][D2][D3][D4][D5][D6][D7][D8][D9][DA][DJ][DK][DQ][H0][H2][H3][H4][H5][H6][H7][H8][H9][HA][HJ][HK][HQ][S0][S2][S3][S4][S5][S6][S7][S8][S9][SA][SJ][SK][SQ]'
p23
tp24
bsS'y_type_'
p25
S'multiclass'
p26
sS'pos_label'
p27
I1
sS'_sklearn_version'
p28
S'0.20.4'
p29
sb.